target datalayout = "e-m:e-p270:32:32-p271:32:32-p272:64:64-i64:64-i128:128-f80:128-n8:16:32:64-S128"
target triple = "x86_64-pc-linux-gnu"

%class.btSpinMutex = type { i32 }
%struct.ThreadsafeCounter = type { i32, %class.btSpinMutex }

@_ZL14gThreadCounter = internal global %struct.ThreadsafeCounter zeroinitializer, align 4
@_ZZ23btGetCurrentThreadIndexvE12sThreadIndex = internal global i32 -1, align 4
@_ZL16gBtTaskScheduler = internal global ptr null, align 8

; Function Attrs: mustprogress nounwind uwtable
define dso_local void @_ZN11btSpinMutex6unlockEv(ptr noundef nonnull align 4 dereferenceable(4) %0) #1 align 2 {
  %2 = alloca ptr, align 8
  store ptr %0, ptr %2, align 8, !tbaa !12
  ret void
}

; Function Attrs: mustprogress nounwind uwtable
define dso_local void @_ZN11btSpinMutex4lockEv(ptr noundef nonnull align 4 dereferenceable(4) %0) #1 align 2 {
  %2 = alloca ptr, align 8
  store ptr %0, ptr %2, align 8, !tbaa !12
  ret void
}

; Function Attrs: mustprogress nounwind uwtable
define linkonce_odr dso_local noundef i32 @_ZN17ThreadsafeCounter7getNextEv(ptr noundef nonnull align 4 dereferenceable(8) %0) #1 comdat align 2 {
  %2 = alloca ptr, align 8
  %3 = alloca i32, align 4
  store ptr %0, ptr %2, align 8, !tbaa !16
  %4 = load ptr, ptr %2, align 8
  %5 = getelementptr inbounds nuw %struct.ThreadsafeCounter, ptr %4, i32 0, i32 1
  call void @_ZN11btSpinMutex4lockEv(ptr noundef nonnull align 4 dereferenceable(4) %5)
  %6 = getelementptr inbounds nuw %struct.ThreadsafeCounter, ptr %4, i32 0, i32 0
  %7 = load i32, ptr %6, align 4, !tbaa !18
  %8 = add i32 %7, 1
  store i32 %8, ptr %6, align 4, !tbaa !18
  %9 = getelementptr inbounds nuw %struct.ThreadsafeCounter, ptr %4, i32 0, i32 0
  %10 = load i32, ptr %9, align 4, !tbaa !18
  %11 = icmp uge i32 %10, 64
  br i1 %11, label %12, label %14

12:                                               ; preds = %1
  %13 = getelementptr inbounds nuw %struct.ThreadsafeCounter, ptr %4, i32 0, i32 0
  store i32 1, ptr %13, align 4, !tbaa !18
  br label %14

14:                                               ; preds = %12, %1
  call void @llvm.lifetime.start.p0(i64 4, ptr %3) #4
  %15 = getelementptr inbounds nuw %struct.ThreadsafeCounter, ptr %4, i32 0, i32 0
  %16 = load i32, ptr %15, align 4, !tbaa !18
  store i32 %16, ptr %3, align 4, !tbaa !9
  %17 = getelementptr inbounds nuw %struct.ThreadsafeCounter, ptr %4, i32 0, i32 1
  call void @_ZN11btSpinMutex6unlockEv(ptr noundef nonnull align 4 dereferenceable(4) %17)
  %18 = load i32, ptr %3, align 4, !tbaa !9
  call void @llvm.lifetime.end.p0(i64 4, ptr %3) #4
  ret i32 %18
}

; Function Attrs: mustprogress uwtable
define dso_local noundef i32 @_Z23btGetCurrentThreadIndexv() #2 {
  %1 = alloca i32, align 4
  call void @llvm.lifetime.start.p0(i64 4, ptr %1) #4
  store i32 -1, ptr %1, align 4, !tbaa !9
  %2 = load i32, ptr @_ZZ23btGetCurrentThreadIndexvE12sThreadIndex, align 4, !tbaa !9
  %3 = icmp eq i32 %2, -1
  br i1 %3, label %4, label %6

4:                                                ; preds = %0
  %5 = call noundef i32 @_ZN17ThreadsafeCounter7getNextEv(ptr noundef nonnull align 4 dereferenceable(8) @_ZL14gThreadCounter)
  store i32 %5, ptr @_ZZ23btGetCurrentThreadIndexvE12sThreadIndex, align 4, !tbaa !9
  br label %6

6:                                                ; preds = %4, %0
  %7 = load i32, ptr @_ZZ23btGetCurrentThreadIndexvE12sThreadIndex, align 4, !tbaa !9
  call void @llvm.lifetime.end.p0(i64 4, ptr %1) #4
  ret i32 %7
}

; Function Attrs: mustprogress uwtable
define dso_local void @_Z18btSetTaskSchedulerP16btITaskScheduler(ptr noundef %0) #2 {
  %2 = alloca ptr, align 8
  %3 = alloca i32, align 4
  %4 = alloca i32, align 4
  store ptr %0, ptr %2, align 8, !tbaa !20
  call void @llvm.lifetime.start.p0(i64 4, ptr %3) #4
  %5 = call noundef i32 @_Z23btGetCurrentThreadIndexv()
  store i32 %5, ptr %3, align 4, !tbaa !9
  %6 = load i32, ptr %3, align 4, !tbaa !9
  %7 = icmp ne i32 %6, 0
  br i1 %7, label %8, label %9

8:                                                ; preds = %1
  store i32 1, ptr %4, align 4
  br label %27

9:                                                ; preds = %1
  %10 = load ptr, ptr @_ZL16gBtTaskScheduler, align 8, !tbaa !20
  %11 = icmp ne ptr %10, null
  br i1 %11, label %12, label %17

12:                                               ; preds = %9
  %13 = load ptr, ptr @_ZL16gBtTaskScheduler, align 8, !tbaa !20
  %14 = load ptr, ptr %13, align 8, !tbaa !24
  %15 = getelementptr inbounds ptr, ptr %14, i64 9
  %16 = load ptr, ptr %15, align 8
  call void %16(ptr noundef nonnull align 8 dereferenceable(21) %13)
  br label %17

17:                                               ; preds = %12, %9
  %18 = load ptr, ptr %2, align 8, !tbaa !20
  store ptr %18, ptr @_ZL16gBtTaskScheduler, align 8, !tbaa !20
  %19 = load ptr, ptr %2, align 8, !tbaa !20
  %20 = icmp ne ptr %19, null
  br i1 %20, label %21, label %26

21:                                               ; preds = %17
  %22 = load ptr, ptr %2, align 8, !tbaa !20
  %23 = load ptr, ptr %22, align 8, !tbaa !24
  %24 = getelementptr inbounds ptr, ptr %23, i64 8
  %25 = load ptr, ptr %24, align 8
  call void %25(ptr noundef nonnull align 8 dereferenceable(21) %22)
  br label %26

26:                                               ; preds = %21, %17
  store i32 0, ptr %4, align 4
  br label %27

27:                                               ; preds = %26, %8
  call void @llvm.lifetime.end.p0(i64 4, ptr %3) #4
  %28 = load i32, ptr %4, align 4
  switch i32 %28, label %30 [
    i32 0, label %29
    i32 1, label %29
  ]

29:                                               ; preds = %27, %27
  ret void

30:                                               ; preds = %27
  unreachable
}