; Function Attrs: mustprogress uwtable
define dso_local void @_Z18btSetTaskSchedulerP16btITaskScheduler(ptr noundef %0) local_unnamed_addr #8 {
  %2 = load i32, ptr @_ZZ23btGetCurrentThreadIndexvE12sThreadIndex, align 4, !tbaa !4
  %3 = icmp eq i32 %2, -1
  br i1 %3, label %4, label %_Z23btGetCurrentThreadIndexv.exit

4:                                                ; preds = %1
  %5 = load i32, ptr @_ZL14gThreadCounter.0, align 4, !tbaa !8
  %6 = add i32 %5, 1
  %7 = icmp ugt i32 %6, 63
  %spec.select.i.i = select i1 %7, i32 1, i32 %6
  store i32 %spec.select.i.i, ptr @_ZL14gThreadCounter.0, align 4, !tbaa !8
  store i32 %spec.select.i.i, ptr @_ZZ23btGetCurrentThreadIndexvE12sThreadIndex, align 4, !tbaa !4
  br label %_Z23btGetCurrentThreadIndexv.exit

_Z23btGetCurrentThreadIndexv.exit:                ; preds = %1, %4
  %8 = phi i32 [ %spec.select.i.i, %4 ], [ %2, %1 ]
  %.not = icmp eq i32 %8, 0
  br i1 %.not, label %9, label %20

9:                                                ; preds = %_Z23btGetCurrentThreadIndexv.exit
  %10 = load ptr, ptr @_ZL16gBtTaskScheduler, align 8, !tbaa !22
  %.not4 = icmp eq ptr %10, null
  br i1 %.not4, label %15, label %11

11:                                               ; preds = %9
  %12 = load ptr, ptr %10, align 8, !tbaa !11
  %13 = getelementptr inbounds nuw i8, ptr %12, i64 72
  %14 = load ptr, ptr %13, align 8
  tail call void %14(ptr noundef nonnull align 8 dereferenceable(21) %10)
  br label %15

15:                                               ; preds = %11, %9
  store ptr %0, ptr @_ZL16gBtTaskScheduler, align 8, !tbaa !22
  %.not5 = icmp eq ptr %0, null
  br i1 %.not5, label %20, label %16

16:                                               ; preds = %15
  %17 = load ptr, ptr %0, align 8, !tbaa !11
  %18 = getelementptr inbounds nuw i8, ptr %17, i64 64
  %19 = load ptr, ptr %18, align 8
  tail call void %19(ptr noundef nonnull align 8 dereferenceable(21) %0)
  br label %20

20:                                               ; preds = %15, %16, %_Z23btGetCurrentThreadIndexv.exit
  ret void
}